(lp0
(dp1
S'ind'
p2
I28638
sS'date'
p3
S'Mon May 25 22:08:33 +0000 2015'
p4
sS'txt'
p5
S'\\"I drive uber in my tesla to pay off the solar panels on my house.\\" yuppiest. statement. ever.'
p6
sa(dp7
g2
I76564
sg3
S'Tue May 26 23:32:29 +0000 2015'
p8
sg5
S'How do you know if a tesla was racing you?'
p9
sa(dp10
g2
I210626
sg3
S'Thu May 28 15:00:06 +0000 2015'
p11
sg5
S'Hoping this tesla runs into me'
p12
sa(dp13
g2
I430442
sg3
S'Thu May 28 17:09:47 +0000 2015'
p14
sg5
S'Of course the rich white man in a tesla almost ran me over'
p15
sa(dp16
g2
I115312
sg3
S'Fri May 29 03:49:54 +0000 2015'
p17
sg5
S'Just saw a red tesla with license plates - vinyl. &gt;&gt;&gt;&gt;&gt;&gt;&gt; #nyc'
p18
sa(dp19
g2
I18892
sg3
S'Fri May 29 19:03:58 +0000 2015'
p20
sg5
S'tattoo idea:\\n\\nandroid logo driving a tesla model S'
p21
sa(dp22
g2
I231190
sg3
S'Sat May 30 00:48:48 +0000 2015'
p23
sg5
S'my dream car is a tesla and ill do anything for it'
p24
sa(dp25
g2
I196480
sg3
S'Sat May 30 03:19:55 +0000 2015'
p26
sg5
S'@elonmusk hey You should be a Tampa Bay lightning fan we got a tesla coil'
p27
sa(dp28
g2
I190352
sg3
S'Sat May 30 05:43:45 +0000 2015'
p29
sg5
S"Want to get me a @navdyInc now I don't need a tesla for heads up display"
p30
sa(dp31
g2
I775678
sg3
S'Sat May 30 19:43:57 +0000 2015'
p32
sg5
S'@yzrashed I just want a tesla death ray'
p33
sa(dp34
g2
I251410
sg3
S'Sun May 31 01:54:58 +0000 2015'
p35
sg5
S'@reannataylorr Nikolai tesla love it and I do too such a sight to see'
p36
sa(dp37
g2
I170912
sg3
S'Mon Jun 01 06:23:19 +0000 2015'
p38
sg5
S"worried about texas? i wouldn't be. i like to be an optimist: tesla buy or hold  @TeslaMotors\\nhttps:\\/\\/t.co\\/rCqAMEdYSI"
p39
sa(dp40
g2
I145442
sg3
S'Mon Jun 01 16:59:43 +0000 2015'
p41
sg5
S'Taking a tesla for a test drive today.'
p42
sa(dp43
g2
I128290
sg3
S'Mon Jun 01 19:05:55 +0000 2015'
p44
sg5
S'So they got this tesla coil at the @Moma that plays trap beats.............. @OfficialBewill http:\\/\\/t.co\\/8n7eMD3f4E'
p45
sa(dp46
g2
I135160
sg3
S'Tue Jun 02 01:09:37 +0000 2015'
p47
sg5
S'@nationalgridus by buying a tesla home battery to get off the grid.'
p48
sa(dp49
g2
I9126
sg3
S'Tue Jun 02 05:47:28 +0000 2015'
p50
sg5
S'Someone see def leppard and tesla with me'
p51
sa(dp52
g2
I66700
sg3
S'Tue Jun 02 12:10:34 +0000 2015'
p53
sg5
S'That tesla that just drove past me was beautiful\\ud83d\\ude0d\\ud83d\\udc45'
p54
sa(dp55
g2
I104928
sg3
S'Tue Jun 02 20:50:23 +0000 2015'
p56
sg5
S'This tesla is dumb clean'
p57
sa(dp58
g2
I137220
sg3
S'Wed Jun 03 05:37:48 +0000 2015'
p59
sg5
S"I'm getting a tesla for University and nothing's stoping me lmao. It's going to happen."
p60
sa(dp61
g2
I620762
sg3
S'Wed Jun 03 17:33:08 +0000 2015'
p62
sg5
S'Just fell in love with a tesla on the FDR'
p63
sa(dp64
g2
I783996
sg3
S'Wed Jun 03 19:01:55 +0000 2015'
p65
sg5
S'The singer of tesla is in my office rn \\ud83d\\ude2d\\ud83d\\ude2d\\ud83d\\ude2d\\ud83d\\ude0d\\ud83d\\ude0d\\ud83d\\ude0d'
p66
sa(dp67
g2
I122840
sg3
S'Wed Jun 03 20:30:59 +0000 2015'
p68
sg5
S'#tesla sucks Stopped at tesla in Vegas. Was ignored for 20 minutes then they put up velvet ropes to keep me away from cars that were sold.'
p69
sa(dp70
g2
I125884
sg3
S'Wed Jun 03 20:32:39 +0000 2015'
p71
sg5
S'@dapted at least the ford dealership wants my business. No tesla for me!!!'
p72
sa(dp73
g2
I207836
sg3
S'Wed Jun 03 23:48:37 +0000 2015'
p74
sg5
S'Testing this bad boy out!! 60 watt tesla is pimp!! #boxmods #louisville #juicebox #vaper\\u2026 https:\\/\\/t.co\\/so0uxQIP7a'
p75
sa(dp76
g2
I105130
sg3
S'Thu Jun 04 03:24:07 +0000 2015'
p77
sg5
S'Yo they have a tesla coil in the Lightning arena #physics http:\\/\\/t.co\\/qhSwlQCAMI'
p78
sa(dp79
g2
I55638
sg3
S'Thu Jun 04 13:28:51 +0000 2015'
p80
sg5
S"@emcnaghten LOVED IT! I've been following it and I really enjoy it. Loved the tesla coil story \\ud83d\\udc81\\ud83c\\udffc\\ud83d\\udc81\\ud83c\\udffc\\ud83d\\udc81\\ud83c\\udffc"
p81
sa(dp82
g2
I571094
sg3
S'Fri Jun 05 13:22:39 +0000 2015'
p83
sg5
S'@BritleeC should I take that day job at tesla and just totally forego sleep? ;D'
p84
sa(dp85
g2
I511100
sg3
S'Sat Jun 06 00:27:40 +0000 2015'
p86
sg5
S'Nikola tesla was a genius'
p87
sa(dp88
g2
I2054
sg3
S'Sat Jun 06 05:32:34 +0000 2015'
p89
sg5
S"my cousin work 4 tesla &amp; says elon musk has a personal assistant that cuts up his food &amp; feeds it to him because he doesn't have the time"
p90
sa(dp91
g2
I911220
sg3
S'Sun Jun 07 00:12:41 +0000 2015'
p92
sg5
S'@valleyhack i actually have a tesla and it was fascinating'
p93
sa(dp94
g2
I76824
sg3
S'Sun Jun 07 19:30:35 +0000 2015'
p95
sg5
S'Lobster rolls &amp; tacos! @greenwichpolo tesla @ Greenwich Polo Club https:\\/\\/t.co\\/afo2olOwHW'
p96
sa(dp97
g2
I20740
sg3
S'Mon Jun 08 01:43:57 +0000 2015'
p98
sg5
S'@MikeMcDunnyman plus tesla only exists because Musk spent so much time in school and learned a shit ton of code.'
p99
sa(dp100
g2
I371312
sg3
S'Mon Jun 08 18:15:11 +0000 2015'
p101
sg5
S'Craig can finally enjoy CarPlay in his tesla without cords!'
p102
sa(dp103
g2
I427094
sg3
S'Mon Jun 08 18:42:55 +0000 2015'
p104
sg5
S'@kevinhoctor it needs to be either less ugly or solve a real problem for me to strap one on \\ud83d\\ude15\\n\\nLike if I had a tesla for example I\\u2019d be in.'
p105
sa(dp106
g2
I589420
sg3
S'Tue Jun 09 13:09:16 +0000 2015'
p107
sg5
S"People giving you thumbs up when you're driving a tesla will never get old \\ud83d\\ude0f"
p108
sa(dp109
g2
I420304
sg3
S'Wed Jun 10 01:47:49 +0000 2015'
p110
sg5
S'@StitchersTV she should call her taser a tesla gun like when @allisonscag was in Warehouse 13.'
p111
sa(dp112
g2
I139668
sg3
S'Wed Jun 10 04:59:22 +0000 2015'
p113
sg5
S"Hard summer gonna be lit ! \\ud83d\\ude4c. Let's see what tesla has to offer lol."
p114
sa(dp115
g2
I883744
sg3
S'Wed Jun 10 16:31:11 +0000 2015'
p116
sg5
S'Not gonna lie i wanna tesla man \\ud83d\\ude29'
p117
sa(dp118
g2
I193042
sg3
S'Thu Jun 11 03:56:26 +0000 2015'
p119
sg5
S'The 4 door one? They be having a tesla on Berhman hwy https:\\/\\/t.co\\/H4fJpaWzq0'
p120
sa(dp121
g2
I861360
sg3
S'Thu Jun 11 18:09:10 +0000 2015'
p122
sg5
S'@deadmau5 @TeslaMotors @elonmusk did u get the tesla p85 yet?'
p123
sa(dp124
g2
I234060
sg3
S'Thu Jun 11 22:42:16 +0000 2015'
p125
sg5
S'I love tesla and brittany'
p126
sa(dp127
g2
I52874
sg3
S'Fri Jun 12 00:02:35 +0000 2015'
p128
sg5
S'@Preciousbelle09 I will purposely test drive that tesla into a Krispy Krem'
p129
sa(dp130
g2
I14358
sg3
S'Fri Jun 12 04:54:40 +0000 2015'
p131
sg5
S'I feel like tesla cars appeared out of nowhere and just keep multiplying in la #imontoyourmagic #tesla ...I saw #theprestige'
p132
sa(dp133
g2
I110912
sg3
S'Sat Jun 13 04:52:51 +0000 2015'
p134
sg5
S'I feel bad because tesla just got comfy and now I feel like moving. \\ud83d\\udc36'
p135
sa(dp136
g2
I120118
sg3
S'Sat Jun 13 14:21:39 +0000 2015'
p137
sg5
S'Tesla modes S charging at new destination tesla charger at super 8 Ukiah http:\\/\\/t.co\\/XuXkYCnzrO'
p138
sa(dp139
g2
I139302
sg3
S'Sat Jun 13 14:37:48 +0000 2015'
p140
sg5
S'@JonathanHoenig the cavuto diet .Book a Virgin or tesla rocket trip'
p141
sa(dp142
g2
I141972
sg3
S'Sat Jun 13 14:39:55 +0000 2015'
p143
sg5
S'@TeamCavuto Nice the Cavuto diet .Book a Virgin or tesla rocket trip'
p144
sa(dp145
g2
I358298
sg3
S'Sun Jun 14 00:59:15 +0000 2015'
p146
sg5
S'Just saw a murdered out tesla \\ud83d\\ude0d\\ud83d\\ude0d'
p147
sa(dp148
g2
I500524
sg3
S'Sun Jun 14 02:07:19 +0000 2015'
p149
sg5
S'She got that tesla http:\\/\\/t.co\\/lMscGxt7yP'
p150
sa(dp151
g2
I208762
sg3
S'Mon Jun 15 15:54:11 +0000 2015'
p152
sg5
S'Ayyy tesla interview in an hour.. Nervous idk why'
p153
sa(dp154
g2
I118272
sg3
S'Tue Jun 16 17:27:45 +0000 2015'
p155
sg5
S"I just saw a pink tesla. What a waste of a beautiful thing. Painting your tesla pink is like wearing your Jordan's in the rain.. #justdont"
p156
sa(dp157
g2
I23524
sg3
S'Tue Jun 16 19:37:28 +0000 2015'
p158
sg5
S'@PaulBlu @jbarro mind blown on tesla + harrison ford'
p159
sa(dp160
g2
I9216
sg3
S'Wed Jun 17 02:39:49 +0000 2015'
p161
sg5
S"it's literally gunna be tesla heaven at edc"
p162
sa(dp163
g2
I292514
sg3
S'Wed Jun 17 19:10:27 +0000 2015'
p164
sg5
S'Denville scout gets high speed ride in tesla driven by NASCAR driver. Story coming @dailyrecord http:\\/\\/t.co\\/BF4DaiWIYM'
p165
sa(dp166
g2
I84910
sg3
S'Wed Jun 17 21:32:02 +0000 2015'
p167
sg5
S'I will have a tesla when im older'
p168
sa(dp169
g2
I13060
sg3
S'Thu Jun 18 15:52:46 +0000 2015'
p170
sg5
S'This white tesla in ada is too Damn pretty.'
p171
sa(dp172
g2
I68138
sg3
S'Thu Jun 18 23:19:14 +0000 2015'
p173
sg5
S'@FaithOceannn but they do tho. They do. Like ok then make me a rich white man where is my 401k where is my tesla where is my cheese plate'
p174
sa(dp175
g2
I163682
sg3
S'Fri Jun 19 00:53:42 +0000 2015'
p176
sg5
S'I should have brought my half tesla for today lol damn'
p177
sa(dp178
g2
I365934
sg3
S'Fri Jun 19 02:19:20 +0000 2015'
p179
sg5
S"I promise I work guys it's just tesla likes to break down a lot \\ud83d\\ude01"
p180
sa(dp181
g2
I26250
sg3
S'Fri Jun 19 04:17:34 +0000 2015'
p182
sg5
S'\\ud83c\\udfc0\\ud83d\\ude0f-u lied about the tesla being urs jerk'
p183
sa(dp184
g2
I267762
sg3
S'Fri Jun 19 06:34:33 +0000 2015'
p185
sg5
S'the fabled tesla thizzles.. lesgeddit'
p186
sa(dp187
g2
I124500
sg3
S'Fri Jun 19 20:21:46 +0000 2015'
p188
sg5
S'Is this the tesla suv? @ Us-101 highway https:\\/\\/t.co\\/96a8MCMhHD'
p189
sa(dp190
g2
I43002
sg3
S'Sat Jun 20 01:05:13 +0000 2015'
p191
sg5
S'@mariaathesavage yay tesla over range rover'
p192
sa(dp193
g2
I301142
sg3
S'Sat Jun 20 14:09:56 +0000 2015'
p194
sg5
S'Everytime I see a tesla car in the wil'
p195
sa(dp196
g2
I42560
sg3
S'Sat Jun 20 17:37:54 +0000 2015'
p197
sg5
S'this just in: the new tesla model x is ugly http:\\/\\/t.co\\/3kwmsGKKCO'
p198
sa(dp199
g2
I54796
sg3
S'Sat Jun 20 17:44:39 +0000 2015'
p200
sg5
S"@NickStorniolo mercedes designed exploding bolts for their gullwing doors in case of flippage so people aren't trapped and tesla gon use em"
p201
sa(dp202
g2
I21084
sg3
S'Sat Jun 20 19:52:12 +0000 2015'
p203
sg5
S'Just doing some usability testing on ThePitch.vc site in a tesla Model S \\ud83d\\ude1c @ Tesla Store https:\\/\\/t.co\\/csiPFGt6NJ'
p204
sa(dp205
g2
I115906
sg3
S'Sat Jun 20 21:57:05 +0000 2015'
p206
sg5
S'I want a tesla model s to be my next car'
p207
sa(dp208
g2
I231288
sg3
S'Sun Jun 21 03:13:54 +0000 2015'
p209
sg5
S"I've seen two #tesla vehicles in NYC today. I love tesla but not excited about LA seeping in lol"
p210
sa(dp211
g2
I8468
sg3
S'Sun Jun 21 04:05:57 +0000 2015'
p212
sg5
S"@TeslaMotors too bad I don't even have a tesla D: #dreamcar http:\\/\\/t.co\\/1QJ9WcTJbo"
p213
sa(dp214
g2
I1124
sg3
S'Sun Jun 21 08:26:15 +0000 2015'
p215
sg5
S'#EDC tesla coil during the fireworks display! PIMP!! #EDCLV #EDCLV2015 #teslacoil #vegasinsiders #vegas #insomniac http:\\/\\/t.co\\/VCFfqxZBxa'
p216
sa(dp217
g2
I63456
sg3
S'Sun Jun 21 20:00:07 +0000 2015'
p218
sg5
S'driving my dads new tesla \\ud83d\\ude0d\\ud83d\\ude0d\\ud83d\\ude0d\\ud83d\\ude0d\\ud83d\\ude0d http:\\/\\/t.co\\/v1b4qnPQvJ'
p219
sa(dp220
g2
I36516
sg3
S'Sun Jun 21 23:48:50 +0000 2015'
p221
sg5
S'Plz I just want a tesla \\ud83d\\ude0d\\ud83d\\udc45'
p222
sa(dp223
g2
I34648
sg3
S'Mon Jun 22 02:57:42 +0000 2015'
p224
sg5
S"I prefer Isaac Newton over Nikolai tesla but that's just me  https:\\/\\/t.co\\/tsgn869xUA"
p225
sa(dp226
g2
I9132
sg3
S'Tue Jun 23 15:34:53 +0000 2015'
p227
sg5
S'@RelayRides that tesla got a damn iPad6 in that bitch. Lol'
p228
sa(dp229
g2
I12840
sg3
S'Tue Jun 23 16:06:07 +0000 2015'
p230
sg5
S'I wonder if this tesla plate is a sad legacy from one of the myriad failed xphone project'
p231
sa(dp232
g2
I44462
sg3
S'Tue Jun 23 21:49:54 +0000 2015'
p233
sg5
S"Well pay for your tesla is all I had to hear. Looks like I'm moving overseas"
p234
sa(dp235
g2
I423316
sg3
S'Wed Jun 24 02:36:21 +0000 2015'
p236
sg5
S'@Hillmaticc technically physicist &amp; mathematician nikola tesla &amp; johannes kepler \\ud83d\\ude33'
p237
sa(dp238
g2
I448716
sg3
S'Wed Jun 24 02:46:12 +0000 2015'
p239
sg5
S"Dad: What do you think about an electric car?\\nMe: If we aren't getting a tesla don't even ask."
p240
sa(dp241
g2
I210180
sg3
S'Wed Jun 24 07:50:47 +0000 2015'
p242
sg5
S'my dad can afford to buy my mom a tesla but can afford to get the ac in my room fixed.... okay cool'
p243
sa(dp244
g2
I1046280
sg3
S'Wed Jun 24 22:43:50 +0000 2015'
p245
sg5
S'Haha fucking nissan altima had the tesla logo on the back'
p246
sa(dp247
g2
I55148
sg3
S'Thu Jun 25 15:28:08 +0000 2015'
p248
sg5
S"when I buy a house it's going to be run by a tesla home solar battery thing omg they're so sick"
p249
sa(dp250
g2
I60168
sg3
S'Thu Jun 25 16:36:07 +0000 2015'
p251
sg5
S'@BrentVitt @JordanBelfort imma drive a tesla any way'
p252
sa(dp253
g2
I15174
sg3
S'Thu Jun 25 17:39:10 +0000 2015'
p254
sg5
S'whats the name of the disease where u have to buy a tesla or u die'
p255
sa(dp256
g2
I198540
sg3
S'Fri Jun 26 13:48:33 +0000 2015'
p257
sg5
S'I want a tesla so bad \\ud83d\\ude2d'
p258
sa(dp259
g2
I313924
sg3
S'Fri Jun 26 19:15:03 +0000 2015'
p260
sg5
S"Currently driving a tesla through the ghetto...... Let's hope this battery lasts"
p261
sa(dp262
g2
I88356
sg3
S'Fri Jun 26 20:24:11 +0000 2015'
p263
sg5
S"No it's totally fine you slam my fucking thumb in the car that I'm working on asshole \\ud83d\\ude12 this is the third time I've been in the tesla er"
p264
sa(dp265
g2
I26382
sg3
S'Sat Jun 27 03:07:41 +0000 2015'
p266
sg5
S'Spotted this beauty \\ud83d\\ude0d hope to own a tesla one day http:\\/\\/t.co\\/X6GG2LQnki'
p267
sa(dp268
g2
I150066
sg3
S'Sat Jun 27 05:07:17 +0000 2015'
p269
sg5
S'Ran into a tesla roadster today.. Only '
p270
sa(dp271
g2
I421588
sg3
S'Sat Jun 27 07:45:06 +0000 2015'
p272
sg5
S'orange tesla \\ud83d\\udc8a are the SHIT. I only took half and I \\ud83c\\udf00 suuuper hard for about 5-6 Came down nice and easy and the afterglow was beautiful :)'
p273
sa(dp274
g2
I423370
sg3
S'Sat Jun 27 07:46:38 +0000 2015'
p275
sg5
S'orange tesla \\ud83d\\udc8a are the SHIT. I only took half and I \\ud83c\\udf00 suuuper hard for about 5-6 Came down nice and easy and the afterglow was beautiful :)'
p276
sa(dp277
g2
I279206
sg3
S'Sat Jun 27 17:32:00 +0000 2015'
p278
sg5
S"At Meijer and saw that they're building tesla superchargers and I freaked out"
p279
sa(dp280
g2
I408234
sg3
S'Sun Jun 28 02:20:43 +0000 2015'
p281
sg5
S'everyone and their mother has a tesla here in Austin'
p282
sa(dp283
g2
I41216
sg3
S'Sun Jun 28 04:24:21 +0000 2015'
p284
sg5
S'Rode in a tesla today... Fastest car I have ever been in by far'
p285
sa(dp286
g2
I167942
sg3
S'Sun Jun 28 06:05:41 +0000 2015'
p287
sg5
S'@elonmusk is Tesla going to make a super efficient three wheeled car thingy? #aptera #elio I want a tesla one... http:\\/\\/t.co\\/U4VCarzP7y'
p288
sa(dp289
g2
I255432
sg3
S'Sun Jun 28 13:18:12 +0000 2015'
p290
sg5
S'every got 80 k to buy a tesla car'
p291
sa(dp292
g2
I256772
sg3
S'Sun Jun 28 13:19:59 +0000 2015'
p293
sg5
S'@TeslaMotors  everbody got 90 k to buy a tesla   what about a car for the masses?  THINK FLYWHEEL POWER DUMMYS'
p294
sa(dp295
g2
I17730
sg3
S'Sun Jun 28 22:48:18 +0000 2015'
p296
sg5
S'I wanna tesla man \\ud83d\\ude05\\ud83d\\ude05'
p297
sa(dp298
g2
I468318
sg3
S'Mon Jun 29 03:38:11 +0000 2015'
p299
sg5
S'Love song - tesla \\n Look it up if u wanna rock'
p300
sa(dp301
g2
I247994
sg3
S'Mon Jun 29 14:26:04 +0000 2015'
p302
sg5
S'@NSMG32 u drive that tesla in insane mode?'
p303
sa(dp304
g2
I180818
sg3
S'Tue Jun 30 01:17:35 +0000 2015'
p305
sg5
S'my friend got a tesla for her 17th birthday WTF'
p306
sa(dp307
g2
I198398
sg3
S'Tue Jun 30 01:24:40 +0000 2015'
p308
sg5
S'#Repost drive4men with repostapp.\\n\\u30fb\\u30fb\\u30fb\\nThe #d4mh tesla finally meets @breastcar #idrive to reach the\\u2026 https:\\/\\/t.co\\/qwIHbaWAD7'
p309
sa(dp310
g2
I236662
sg3
S'Tue Jun 30 23:03:24 +0000 2015'
p311
sg5
S'\\"I only bought the tesla so I could drive drunk\\"'
p312
sa(dp313
g2
I16272
sg3
S'Wed Jul 01 20:01:42 +0000 2015'
p314
sg5
S"I called an uber and it's a tesla welcome to LA?"
p315
sa(dp316
g2
I215276
sg3
S'Thu Jul 02 03:56:48 +0000 2015'
p317
sg5
S'Did someone steal tesla showroom ipad? #timewarnercenter #uws http:\\/\\/t.co\\/n8PGawWq3D'
p318
sa(dp319
g2
I195398
sg3
S'Thu Jul 02 07:17:07 +0000 2015'
p320
sg5
S"I woke up for a sec and tesla texted me and now I'm up \\ud83d\\ude04\\ud83d\\ude04"
p321
sa(dp322
g2
I68384
sg3
S'Thu Jul 02 09:16:33 +0000 2015'
p323
sg5
S"the tesla model s's are \\ud83d\\udd25"
p324
sa(dp325
g2
I60112
sg3
S'Thu Jul 02 14:58:02 +0000 2015'
p326
sg5
S'Citron explains and shorts tesla because of \\"underwhelming sales.\\" Citron killed Zillow and Amba with similar tactics.'
p327
sa(dp328
g2
I389472
sg3
S'Fri Jul 03 22:47:20 +0000 2015'
p329
sg5
S'Blue tesla tonight \\ud83d\\ude0d fucking fire'
p330
sa(dp331
g2
I579520
sg3
S'Sat Jul 04 00:27:49 +0000 2015'
p332
sg5
S'#gearbest2013 has the tesla two box mod for 29.99 get one be4 they are gone.'
p333
sa(dp334
g2
I198066
sg3
S'Sat Jul 04 05:28:54 +0000 2015'
p335
sg5
S'@MrJamesMay @JeremyClarkson tesla model s?'
p336
sa(dp337
g2
I192338
sg3
S'Sat Jul 04 07:56:21 +0000 2015'
p338
sg5
S'@PeteTreezy thang tesla quy filter \\ud83d\\ude13\\ud83d\\ude13\\ud83d\\ude13\\ud83d\\ude13'
p339
sa(dp340
g2
I41514
sg3
S'Sat Jul 04 23:49:18 +0000 2015'
p341
sg5
S'I want a tesla \\ud83d\\ude97'
p342
sa(dp343
g2
I61004
sg3
S'Sun Jul 05 20:49:20 +0000 2015'
p344
sg5
S'Nikola tesla (@ Nave Generadores in Monterre'
p345
sa(dp346
g2
I274250
sg3
S'Mon Jul 06 05:56:43 +0000 2015'
p347
sg5
S"@sadi__lovin I took half an orange tesla and right before I started peaking I threw up twice! I've never vomited from taking E before LOL"
p348
sa(dp349
g2
I419204
sg3
S'Mon Jul 06 07:15:42 +0000 2015'
p350
sg5
S'this tesla is about to have me onnnn'
p351
sa(dp352
g2
I116776
sg3
S'Mon Jul 06 11:02:15 +0000 2015'
p353
sg5
S'Did you know in 1918 j.p. Morgan stopped nikola tesla from building an electric energy grid would have powered the whole world for free!'
p354
sa(dp355
g2
I526270
sg3
S'Tue Jul 07 01:09:37 +0000 2015'
p356
sg5
S"I'm working 6-6 then getting back up at 10 to work 12-9 fuck tesla thanks for the heads up on shift change"
p357
sa(dp358
g2
I49030
sg3
S'Tue Jul 07 15:10:43 +0000 2015'
p359
sg5
S"Kevin O'Leary ripping on tesla \\ud83d\\ude02\\ud83d\\ude02"
p360
sa(dp361
g2
I86374
sg3
S'Wed Jul 08 02:51:55 +0000 2015'
p362
sg5
S'If I had a tesla I would title drive by Starbucks to get their free WiFi.'
p363
sa(dp364
g2
I201522
sg3
S'Wed Jul 08 03:33:23 +0000 2015'
p365
sg5
S'The tesla model s just passed me and ive never been so happy to drive next to a car. #goals'
p366
sa(dp367
g2
I165194
sg3
S'Wed Jul 08 06:15:26 +0000 2015'
p368
sg5
S'That tesla is all I need in life fully loaded'
p369
sa(dp370
g2
I104762
sg3
S'Wed Jul 08 17:22:28 +0000 2015'
p371
sg5
S'@ImJoeyGreen m5 is definitely gonna get the tesla out the way\\ud83d\\ude02'
p372
sa(dp373
g2
I183672
sg3
S'Wed Jul 08 18:00:09 +0000 2015'
p374
sg5
S'@AndresDC94 i can do everything just fine while on the tesla my friend'
p375
sa(dp376
g2
I33326
sg3
S'Thu Jul 09 00:32:52 +0000 2015'
p377
sg5
S'@jewunit so when we start that hardcore band can we tour in the tesla  !!?'
p378
sa(dp379
g2
I122936
sg3
S'Thu Jul 09 01:11:03 +0000 2015'
p380
sg5
S'holy FUCKING tesla http:\\/\\/t.co\\/EHmMiWDGfO'
p381
sa(dp382
g2
I69796
sg3
S'Thu Jul 09 13:57:48 +0000 2015'
p383
sg5
S'Quand tesla premi\\u00e8re \\u00e0 passer au salon \\ud83d\\ude0f'
p384
sa(dp385
g2
I140798
sg3
S'Thu Jul 09 14:50:05 +0000 2015'
p386
sg5
S'About to cop a tesla lol'
p387
sa(dp388
g2
I196494
sg3
S'Thu Jul 09 15:23:50 +0000 2015'
p389
sg5
S"@Sharp_tK @OpTic_MBoZe whose tesla Is that? Car cost 70k but you can sell it for 100k. That's how limited it is"
p390
sa(dp391
g2
I69032
sg3
S'Fri Jul 10 20:45:31 +0000 2015'
p392
sg5
S'@CloudianStorage selected as leading innovator company @usjinnovate   - previous winners include tesla motors. http:\\/\\/t.co\\/rkfvujwQIz'
p393
sa(dp394
g2
I169374
sg3
S'Fri Jul 10 21:33:45 +0000 2015'
p395
sg5
S"@DjokerNole was just at the tesla museum in Croatia - he's great just like yo"
p396
sa(dp397
g2
I345468
sg3
S'Fri Jul 10 22:59:25 +0000 2015'
p398
sg5
S'happy birthday nikola tesla \\nremember: Edison was a hack'
p399
sa(dp400
g2
I77386
sg3
S'Sat Jul 11 14:48:36 +0000 2015'
p401
sg5
S'@Elonolizer http:\\/\\/t.co\\/SPrCoX3zmg the pareto effect or the %80-%20 principle as applies to tesla green park @elonmusk'
p402
sa(dp403
g2
I1418758
sg3
S'Sun Jul 12 02:22:13 +0000 2015'
p404
sg5
S"I love my uncle's tesla \\ud83d\\ude0d\\ud83d\\ude0d"
p405
sa(dp406
g2
I199768
sg3
S'Sun Jul 12 14:00:13 +0000 2015'
p407
sg5
S'@benandjerrys tesla ice cream truck! @Nextility @Energy_Leaders #trainwithsol @GreenSmithPR http:\\/\\/t.co\\/JU0z8ZcN6z'
p408
sa(dp409
g2
I951152
sg3
S'Sun Jul 12 20:50:24 +0000 2015'
p410
sg5
S"Off to tesla and def leppard at Darien lake. My better half is going too. If you don't know who they are look 'em up!\\ud83c\\udfb8\\ud83c\\udfa4"
p411
sa(dp412
g2
I290220
sg3
S'Sun Jul 12 23:57:50 +0000 2015'
p413
sg5
S'Dudes driving a tesla \\ud83d\\ude31'
p414
sa(dp415
g2
I480134
sg3
S'Mon Jul 13 01:21:08 +0000 2015'
p416
sg5
S"@DJwoske jokes aside. I don't think u can have tesla and be soaking garri"
p417
sa(dp418
g2
I269268
sg3
S'Mon Jul 13 19:25:33 +0000 2015'
p419
sg5
S'Just got asked by a 50 year old if he could be my sugar daddy and spoil me.. He was driving a tesla tho \\ud83d\\ude0e'
p420
sa(dp421
g2
I752466
sg3
S'Mon Jul 13 23:12:15 +0000 2015'
p422
sg5
S'The tesla I shiny primer grey gray color'
p423
sa(dp424
g2
I32152
sg3
S'Wed Jul 15 14:10:36 +0000 2015'
p425
sg5
S'One Way Begins @ tesla cafe https:\\/\\/t.co\\/cl0HJcysMy'
p426
sa(dp427
g2
I155898
sg3
S'Wed Jul 15 16:37:30 +0000 2015'
p428
sg5
S'@EcheverriKeith very easy to customize tesla order online @tesla #adpignite'
p429
sa(dp430
g2
I169570
sg3
S'Wed Jul 15 16:44:28 +0000 2015'
p431
sg5
S'Wow. BIG plans to transform piezoelectric energy from pedestrians below into smokestack tesla coils above. https:\\/\\/t.co\\/CTEUpMU23v'
p432
sa(dp433
g2
I126334
sg3
S'Wed Jul 15 20:45:34 +0000 2015'
p434
sg5
S'i want a tesla \\ud83d\\ude29'
p435
sa(dp436
g2
I346860
sg3
S'Wed Jul 15 22:33:31 +0000 2015'
p437
sg5
S'@DerekSheen there is a Mel brooks tesla joke in there somewhere #spaceballs'
p438
sa(dp439
g2
I10766
sg3
S'Thu Jul 16 01:39:24 +0000 2015'
p440
sg5
S"@katyperiphery it's the dumb idiot boss stupid idiot owners who can afford a tesla but can't spell"
p441
sa(dp442
g2
I10572
sg3
S'Thu Jul 16 17:02:59 +0000 2015'
p443
sg5
S'The tesla tour \\ud83d\\ude2d\\ud83d\\ude0d @Fluxpavilion'
p444
sa(dp445
g2
I351952
sg3
S'Thu Jul 16 19:43:26 +0000 2015'
p446
sg5
S"how come it's always the really fast cars that drive extra slow like If my ratch mobile can pass your tesla we should switch cars"
p447
sa(dp448
g2
I254316
sg3
S'Fri Jul 17 02:07:40 +0000 2015'
p449
sg5
S'@joshmolone or a tesla for me........'
p450
sa(dp451
g2
I558364
sg3
S'Sat Jul 18 02:01:30 +0000 2015'
p452
sg5
S'look up nikola tesla https:\\/\\/t.co\\/VdwoDeXmtq'
p453
sa(dp454
g2
I653344
sg3
S'Sat Jul 18 02:42:54 +0000 2015'
p455
sg5
S'someday I will own a tesla model s or the equivalent in the future'
p456
sa(dp457
g2
I694538
sg3
S'Sat Jul 18 03:00:25 +0000 2015'
p458
sg5
S'if my dad gets a 2017 tesla next year I will be so happy'
p459
sa(dp460
g2
I293584
sg3
S'Sat Jul 18 17:01:59 +0000 2015'
p461
sg5
S'Trying to convince my dad to get a tesla Brah'
p462
sa(dp463
g2
I400230
sg3
S'Sat Jul 18 21:39:17 +0000 2015'
p464
sg5
S'@xobbyy in Livermore at a logistic warehouse better money than what I was making at tesla better hours easy work lol'
p465
sa(dp466
g2
I519324
sg3
S'Sat Jul 18 22:38:46 +0000 2015'
p467
sg5
S'@ChiefBooty @SuppIying the tesla roadster is pretty sick. http:\\/\\/t.co\\/MhkJUIUvxN'
p468
sa(dp469
g2
I835654
sg3
S'Sun Jul 19 01:18:30 +0000 2015'
p470
sg5
S"I've been jamming to love song by tesla all damn day"
p471
sa(dp472
g2
I38806
sg3
S'Sun Jul 19 09:04:10 +0000 2015'
p473
sg5
S'@elonmusk ....this relates to you: oct tesla polish parade st pats nyc.......trust me....'
p474
sa(dp475
g2
I232070
sg3
S'Mon Jul 20 19:51:15 +0000 2015'
p476
sg5
S'A tesla and a huge collection of headphones #lifegoal'
p477
sa(dp478
g2
I97918
sg3
S'Tue Jul 21 15:38:50 +0000 2015'
p479
sg5
S"'Bout to claim my 401k and buy a tesla forreal"
p480
sa(dp481
g2
I117080
sg3
S'Tue Jul 21 19:46:29 +0000 2015'
p482
sg5
S'Rock paper scissors blanket mirror crane tesla robot orangutan book rope water'
p483
sa(dp484
g2
I305892
sg3
S'Tue Jul 21 21:17:58 +0000 2015'
p485
sg5
S"When you have to find your boss's tesla in the parking lot but you can't tell which one is his..... \\ud83d\\ude33 #siliconvalleyproblems"
p486
sa(dp487
g2
I76714
sg3
S'Tue Jul 21 23:57:56 +0000 2015'
p488
sg5
S"I was thinking about getting a tesla but then my mom told me to be realistic ... I don't unda Stan .. I really want one I'm serious"
p489
sa(dp490
g2
I176138
sg3
S'Wed Jul 22 01:36:48 +0000 2015'
p491
sg5
S"Just passed a tesla and damn they're sexy. When I'm ric"
p492
sa(dp493
g2
I15422
sg3
S'Wed Jul 22 05:41:43 +0000 2015'
p494
sg5
S'Quiero ir a ver la exposici\\u00f3n de nikola tesla \\ud83d\\ude16'
p495
sa(dp496
g2
I73090
sg3
S'Wed Jul 22 06:06:34 +0000 2015'
p497
sg5
S'toothless danny and i are going to ride down bathgate naked in his tesla #205am'
p498
sa(dp499
g2
I253972
sg3
S'Wed Jul 22 12:27:47 +0000 2015'
p500
sg5
S'This tesla parked next to me \\ud83d\\ude0d'
p501
sa(dp502
g2
I52960
sg3
S'Wed Jul 22 15:12:46 +0000 2015'
p503
sg5
S'@PILSENSFINEST lmao nah King lol they have a tesla wrapped up ): not many nice cars thou'
p504
sa(dp505
g2
I474828
sg3
S'Wed Jul 22 18:43:30 +0000 2015'
p506
sg5
S"@Jacqueline_914 plus in Texas you can't buy a tesla directly from tesla"
p507
sa(dp508
g2
I875992
sg3
S'Wed Jul 22 21:54:28 +0000 2015'
p509
sg5
S"When tesla doesn't know who Marvin Gaye is......."
p510
sa(dp511
g2
I315218
sg3
S'Thu Jul 23 07:39:46 +0000 2015'
p512
sg5
S'@TrutherbotUFO too bad tesla was a eugenics pusher- saw most humans as DRONES ruined my perception of him.'
p513
sa(dp514
g2
I43538
sg3
S'Thu Jul 23 15:07:20 +0000 2015'
p515
sg5
S"They're really giving away a tesla on the price is right wtf"
p516
sa(dp517
g2
I44258
sg3
S'Thu Jul 23 20:49:28 +0000 2015'
p518
sg5
S'damm somebody got the tesla parked up in front of target'
p519
sa(dp520
g2
I64468
sg3
S'Thu Jul 23 23:39:41 +0000 2015'
p521
sg5
S'At auto appearance specialists getting my tesla washed http:\\/\\/t.co\\/HXb0PauSab'
p522
sa(dp523
g2
I148144
sg3
S'Fri Jul 24 15:12:38 +0000 2015'
p524
sg5
S'@kkubasik i had a dream that you gifted me a tesla last nigh'
p525
sa(dp526
g2
I150630
sg3
S'Fri Jul 24 16:50:02 +0000 2015'
p527
sg5
S'I want a all black tesla so bad'
p528
sa(dp529
g2
I43962
sg3
S'Fri Jul 24 19:03:51 +0000 2015'
p530
sg5
S'@agrabau Imagine Uber + tesla + Google self driving. In 15 years traffic patterns will be much different'
p531
sa(dp532
g2
I175276
sg3
S'Fri Jul 24 22:41:10 +0000 2015'
p533
sg5
S'Punching the \\u201cgas\\u201d peda on the tesla get like taking off in a spaceship. So smooth. Much exhilaration. Very wow.'
p534
sa(dp535
g2
I24560
sg3
S'Sat Jul 25 00:42:20 +0000 2015'
p536
sg5
S'\\"The tesla charging station totally sold me on the new place\\" BayAreainLA #STOP'
p537
sa(dp538
g2
I159482
sg3
S'Sat Jul 25 01:45:40 +0000 2015'
p539
sg5
S"When you've been living in lathrop all this time and barely just noticed the tesla building \\ud83d\\ude02\\ud83d\\ude02\\ud83d\\ude02"
p540
sa(dp541
g2
I163432
sg3
S'Sat Jul 25 05:15:55 +0000 2015'
p542
sg5
S"I guess I'm gonna see @12thplanet on the tesla tour. Tryna turn up with the boy again. His shows stay lit"
p543
sa(dp544
g2
I135912
sg3
S'Sat Jul 25 18:25:31 +0000 2015'
p545
sg5
S'Just saw a tesla pull out of a gas station...'
p546
sa(dp547
g2
I328636
sg3
S'Sat Jul 25 22:00:51 +0000 2015'
p548
sg5
S"Fuck it! I don't know lol!! @ferrarimotorspo tesla mercedesbenz @pourgalMelody intromeapp\\u2026 https:\\/\\/t.co\\/h1RaZZsJwN"
p549
sa(dp550
g2
I192226
sg3
S'Sun Jul 26 03:58:24 +0000 2015'
p551
sg5
S'The gas stations have tesla car charging stations \\ud83d\\ude02'
p552
sa(dp553
g2
I18272
sg3
S'Sun Jul 26 04:50:21 +0000 2015'
p554
sg5
S"Sean picked me up in his dad's tesla and I'm in looooooove\\ud83d\\ude3b"
p555
sa(dp556
g2
I177958
sg3
S'Sun Jul 26 06:05:56 +0000 2015'
p557
sg5
S'post tesla coil decompression brew - Drinking a Too Cream Stout @ The Village @ Somersett - http:\\/\\/t.co\\/G430EmYmzz #photo'
p558
sa(dp559
g2
I136522
sg3
S'Sun Jul 26 14:26:42 +0000 2015'
p560
sg5
S'@NicholasDavis4 lmao Bruh said tesla the charge real homie'
p561
sa(dp562
g2
I73834
sg3
S'Sun Jul 26 17:37:37 +0000 2015'
p563
sg5
S"so there's just a random tesla store in lyndhurst now?\\u00bf"
p564
sa(dp565
g2
I126380
sg3
S'Sun Jul 26 18:42:30 +0000 2015'
p566
sg5
S'Coolest thing I saw on the internet today: sail performed by two tesla coils!!!\\nhttp:\\/\\/t.co\\/mTDq6b2Zfz'
p567
sa(dp568
g2
I17330
sg3
S'Tue Jul 28 07:08:02 +0000 2015'
p569
sg5
S'Mackned got a rare ass tesla tatttoo bruh he is a factor'
p570
sa(dp571
g2
I536
sg3
S'Tue Jul 28 08:55:08 +0000 2015'
p572
sg5
S'I want a tesla so bad'
p573
sa(dp574
g2
I39598
sg3
S'Tue Jul 28 13:40:21 +0000 2015'
p575
sg5
S"@SamHeughan Did you receive that silver tesla model 3 I sent you? Respond if you DIDN'T.  #wildjoke"
p576
sa(dp577
g2
I102886
sg3
S'Tue Jul 28 15:43:01 +0000 2015'
p578
sg5
S'Apple should buy out tesla &amp; uber and make elon musk their CEO. A world of self-driving electric cars that you can hail from your smartphone'
p579
sa(dp580
g2
I222562
sg3
S'Tue Jul 28 16:44:12 +0000 2015'
p581
sg5
S'My little boy riding in the tesla \\ud83d\\ude0e http:\\/\\/t.co\\/qASDMNMFeG'
p582
sa(dp583
g2
I685814
sg3
S'Tue Jul 28 23:04:18 +0000 2015'
p584
sg5
S'got a ride to Nicki tn in a tesla #holygoals \\ud83d\\udc45'
p585
sa(dp586
g2
I50216
sg3
S'Wed Jul 29 14:48:14 +0000 2015'
p587
sg5
S'I get to test drive a tesla today'
p588
sa(dp589
g2
I28232
sg3
S'Wed Jul 29 22:50:07 +0000 2015'
p590
sg5
S'Lol China already has a tesla knockoff...'
p591
sa(dp592
g2
I25096
sg3
S'Thu Jul 30 19:08:42 +0000 2015'
p593
sg5
S'Shell sucks . But I still use your gas until tesla comes out with fully electrical powered vehicles \\ud83d\\ude0f'
p594
sa(dp595
g2
I73558
sg3
S'Thu Jul 30 22:16:53 +0000 2015'
p596
sg5
S'A tesla in yorkville?? \\ud83d\\ude31\\ud83d\\ude0d'
p597
sa(dp598
g2
I27792
sg3
S'Fri Jul 31 00:16:59 +0000 2015'
p599
sg5
S"Ima get that 3rd row on the tesla just to waste money. I don't got enough friends to fill up 7 seats"
p600
sa(dp601
g2
I61944
sg3
S'Fri Jul 31 02:38:22 +0000 2015'
p602
sg5
S'@RtnAssBiter @Fuzimir   We talked about making it a tesla coil too that could shoot out bolts but then you know...things might happen.'
p603
sa(dp604
g2
I101740
sg3
S'Fri Jul 31 15:17:42 +0000 2015'
p605
sg5
S'@Yvens_R @CARandDRIVER tesla devan devan net zanmi'
p606
sa(dp607
g2
I186516
sg3
S'Fri Jul 31 19:04:56 +0000 2015'
p608
sg5
S'Zebra wrap tesla getting a ticket. @ MJ Cafe Express - Los Angeles https:\\/\\/t.co\\/rtTDpIJYBi'
p609
sa(dp610
g2
I38340
sg3
S'Fri Jul 31 19:57:46 +0000 2015'
p611
sg5
S'Giant tesla coils @ muesem of science and industry https:\\/\\/t.co\\/HsizD4MqGB'
p612
sa(dp613
g2
I50820
sg3
S'Fri Jul 31 21:32:44 +0000 2015'
p614
sg5
S'I want a tesla as a car\\ud83d\\ude0d\\ud83d\\ude0d'
p615
sa(dp616
g2
I27418
sg3
S'Sat Aug 01 19:04:19 +0000 2015'
p617
sg5
S'why am i looking at tesla cars\\nwhy torture myself'
p618
sa(dp619
g2
I60780
sg3
S'Sat Aug 01 22:23:31 +0000 2015'
p620
sg5
S"Priscilla is so cute and so is tesla sheesh all the cute people work at Goodfella's"
p621
sa(dp622
g2
I524002
sg3
S'Sun Aug 02 03:29:31 +0000 2015'
p623
sg5
S'My grandfather went from a minivan to a tesla .... lol'
p624
sa(dp625
g2
I611688
sg3
S'Sun Aug 02 04:05:37 +0000 2015'
p626
sg5
S'Finally submitted my application to tesla motors \\ud83d\\ude0e'
p627
sa(dp628
g2
I249754
sg3
S'Sun Aug 02 16:13:21 +0000 2015'
p629
sg5
S"Just saw this man driving a tesla \\ud83d\\ude29\\ud83d\\ude29 it's so beautiful!"
p630
sa(dp631
g2
I32052
sg3
S'Mon Aug 03 02:27:49 +0000 2015'
p632
sg5
S'@sustbusiness @Uber @TeslaMotors free rides in s tesla to stump for @ube'
p633
sa(dp634
g2
I11590
sg3
S'Mon Aug 03 02:39:15 +0000 2015'
p635
sg5
S'#tesla tesla #modelS @ Tesla Motors https:\\/\\/t.co\\/Cav49Ff3sc'
p636
sa(dp637
g2
I81862
sg3
S'Mon Aug 03 14:33:02 +0000 2015'
p638
sg5
S'GIRLS DONT LIKE BOYS GIRLS LIKE CARS AND MONEY @Luke5SOS can I borrow your tesla please'
p639
sa(dp640
g2
I284108
sg3
S'Tue Aug 04 06:02:31 +0000 2015'
p641
sg5
S'anybody work at tesla here?'
p642
sa(dp643
g2
I52850
sg3
S'Wed Aug 05 03:05:41 +0000 2015'
p644
sg5
S'@OpTic_NaDeSHoT you should get a new m3\\/m4 or a tesla p85d.'
p645
sa(dp646
g2
I616
sg3
S'Wed Aug 05 16:40:16 +0000 2015'
p647
sg5
S'Brenda calls a pool meeting tesla us the pool is closing down &amp; then starts laughing hysterically &amp; says jk I have pizza &amp; ice cream cake \\ud83d\\ude11'
p648
sa(dp649
g2
I6880
sg3
S'Wed Aug 05 17:55:44 +0000 2015'
p650
sg5
S'... everything about tesla looks good.  why am I short? $tsla \\ud83c\\udf88'
p651
sa(dp652
g2
I115884
sg3
S'Wed Aug 05 19:17:52 +0000 2015'
p653
sg5
S'The fact that X &gt;0 is a business miracle for the #wrightBros considering how Nicolai tesla got raped of his GE shares http:\\/\\/t.co\\/j11N5mNdbb'
p654
sa(dp655
g2
I10050
sg3
S'Thu Aug 06 00:34:40 +0000 2015'
p656
sg5
S'Lmfao the tesla model x is mad ugly'
p657
sa(dp658
g2
I141460
sg3
S'Thu Aug 06 02:35:26 +0000 2015'
p659
sg5
S'Is a tesla even a good car model?'
p660
sa(dp661
g2
I157138
sg3
S'Thu Aug 06 02:41:03 +0000 2015'
p662
sg5
S'San Francisco: where you park in between a tesla and a guy with a crack pipe'
p663
sa(dp664
g2
I131882
sg3
S'Thu Aug 06 06:25:46 +0000 2015'
p665
sg5
S'Prom plans : going to rent a tesla and crashes it the same night \\ud83d\\ude02'
p666
sa(dp667
g2
I15554
sg3
S'Thu Aug 06 15:06:53 +0000 2015'
p668
sg5
S'@TeslaMotors ugh I want a tesla so badly but I live in the middle of no where  in the U.S.  Time to move.'
p669
sa(dp670
g2
I15670
sg3
S'Thu Aug 06 15:06:57 +0000 2015'
p671
sg5
S'Why is tesla slowly plumiting when their cars are so sexy'
p672
sa(dp673
g2
I4728
sg3
S'Thu Aug 06 15:49:58 +0000 2015'
p674
sg5
S'@itsdinabreh I test drove a P85D... I fell in love . I always loved tesla but that sealed it for me lol'
p675
sa(dp676
g2
I18022
sg3
S'Thu Aug 06 15:56:57 +0000 2015'
p677
sg5
S"@PC_Trades @nachoswithsalsa typically do $100 wide. Although today's drop puts me $6 away from the money line.  I'm bullish on tesla though."
p678
sa(dp679
g2
I84028
sg3
S'Thu Aug 06 16:49:26 +0000 2015'
p680
sg5
S'My reaction to Watching this while sitting right in front of the local tesla show room \\"I\'m outta here\\"  https:\\/\\/t.co\\/rlDgDOK646'
p681
sa(dp682
g2
I26386
sg3
S'Thu Aug 06 20:23:38 +0000 2015'
p683
sg5
S'New tesla charger prototype :0 cc @retnacaiam @UnSusPillBoi @louisvuittondcn https:\\/\\/t.co\\/Gzt27GF9a9'
p684
sa(dp685
g2
I91968
sg3
S'Thu Aug 06 20:54:32 +0000 2015'
p686
sg5
S'#errands #gaymen #Indianapolis #rihanna #bitchbetterhavemymoney @rihanna #gay #Tesla tesla #TeslaGear\\u2026 https:\\/\\/t.co\\/rLITVTJjSD'
p687
sa(dp688
g2
I49730
sg3
S'Fri Aug 07 13:27:09 +0000 2015'
p689
sg5
S'What if he drives a tesla model s? https:\\/\\/t.co\\/xXBvofOJi6'
p690
sa(dp691
g2
I5644
sg3
S'Fri Aug 07 17:37:01 +0000 2015'
p692
sg5
S'I swear I always get a little wet when I see a tesla \\ud83d\\udca6\\ud83d\\udca6\\ud83d\\udca6'
p693
sa(dp694
g2
I3702
sg3
S'Sat Aug 08 00:39:18 +0000 2015'
p695
sg5
S'Biomdaki emaili tesla emailimle mi de\\u011fi\\u015ftirsem\\ud83d\\ude0e'
p696
sa(dp697
g2
I20588
sg3
S'Sat Aug 08 03:36:33 +0000 2015'
p698
sg5
S'just saw fancy tesla store right besides used cars dealler'
p699
sa(dp700
g2
I272124
sg3
S'Sat Aug 08 06:15:59 +0000 2015'
p701
sg5
S'@FordMX Yo quiero un Kia el\\u00e9ctrico y un carro tesla que vuele a un casino en la luna. Jugar\\u00eda ruleta y apostar\\u00eda en carreras de caballos'
p702
sa(dp703
g2
I29640
sg3
S'Sat Aug 08 06:44:32 +0000 2015'
p704
sg5
S'Everyone is too scared to take the tesla Hahahahahaha'
p705
sa(dp706
g2
I27838
sg3
S'Sat Aug 08 15:44:02 +0000 2015'
p707
sg5
S'@mattf_rd i was doing that on shrooms and tesla and thomas edison were fighting in the light bulb'
p708
sa(dp709
g2
I154098
sg3
S'Sat Aug 08 16:51:39 +0000 2015'
p710
sg5
S'My little tesla coil: lightning is magic\\nMusi'
p711
sa(dp712
g2
I75250
sg3
S'Sun Aug 09 02:35:04 +0000 2015'
p713
sg5
S'I got to sit in a tesla \\ud83d\\ude00'
p714
sa(dp715
g2
I84732
sg3
S'Sun Aug 09 02:39:10 +0000 2015'
p716
sg5
S'Just witnessed a fiat try n take off on a tesla .... Yeah'
p717
sa(dp718
g2
I102696
sg3
S'Sun Aug 09 02:46:45 +0000 2015'
p719
sg5
S'@Lunostophiles OMG she defibrilated a troll with some kind of tesla coil looking thing'
p720
sa(dp721
g2
I129136
sg3
S'Sun Aug 09 05:05:03 +0000 2015'
p722
sg5
S"there's tesla taxi cabs in Oregon.."
p723
sa(dp724
g2
I309596
sg3
S'Sun Aug 09 17:37:08 +0000 2015'
p725
sg5
S'Yes. \\"@TheOnlyReed: Nigga offer u a tesla or a Bugatti right now yall really takin the tesla??\\u201d'
p726
sa(dp727
g2
I321270
sg3
S'Sun Aug 09 17:42:50 +0000 2015'
p728
sg5
S'Ride the Bugatti for a week and sell for a Tesla. RT @TheOnlyReed: Nigga offer u a tesla or a Bugatti right now yall really takin the tesla?'
p729
sa(dp730
g2
I106288
sg3
S'Sun Aug 09 21:40:41 +0000 2015'
p731
sg5
S'When your order uberX and a tesla shows up.....'
p732
sa(dp733
g2
I65184
sg3
S'Sun Aug 09 23:30:04 +0000 2015'
p734
sg5
S'@misterkobee let me give u an orange tesla gdi'
p735
sa(dp736
g2
I103856
sg3
S'Mon Aug 10 00:43:56 +0000 2015'
p737
sg5
S'holy shitt a tesla P85D insane mode would be so bomb \\ud83d\\ude0d'
p738
sa(dp739
g2
I51168
sg3
S'Mon Aug 10 18:32:45 +0000 2015'
p740
sg5
S'my mom is going to a def leppard + tesla concert tonight .....'
p741
sa(dp742
g2
I1090
sg3
S'Mon Aug 10 18:37:11 +0000 2015'
p743
sg5
S'@FortuneMagazine i would like place order for this tesla battery! Is there room for one order? Jesse Cerda! Alternate Ride!'
p744
sa(dp745
g2
I32888
sg3
S'Mon Aug 10 20:38:22 +0000 2015'
p746
sg5
S'@hardwear think I lost tesla key at store a few months ago. Anyone'
p747
sa(dp748
g2
I24074
sg3
S'Tue Aug 11 16:02:52 +0000 2015'
p749
sg5
S"I'll have my first tesla after undergra"
p750
sa(dp751
g2
I127528
sg3
S'Tue Aug 11 22:48:38 +0000 2015'
p752
sg5
S'@neilcybart did you listen to latest @Asymco podcast. Interesting point abt tesla not innovating on production so not sustainable advantage'
p753
sa(dp754
g2
I11524
sg3
S'Wed Aug 12 00:28:46 +0000 2015'
p755
sg5
S'My dad says he wants a tesla car now....... Like who is he buying all these cars for?'
p756
sa(dp757
g2
I88064
sg3
S'Wed Aug 12 04:37:41 +0000 2015'
p758
sg5
S'@Kulinpls tesla would do it better'
p759
sa(dp760
g2
I35430
sg3
S'Fri Aug 14 18:31:04 +0000 2015'
p761
sg5
S'@frak the tesla or Napa? ;) both are nice.'
p762
sa(dp763
g2
I276604
sg3
S'Sat Aug 15 19:37:36 +0000 2015'
p764
sg5
S'Peter in a tesla @peterspallino5 http:\\/\\/t.co\\/ZcJVYTkSDo'
p765
sa(dp766
g2
I42442
sg3
S'Sat Aug 15 20:49:56 +0000 2015'
p767
sg5
S"When your uncle gets a tesla and let's you drive it \\ud83d\\ude0d"
p768
sa(dp769
g2
I286502
sg3
S'Sun Aug 16 20:29:32 +0000 2015'
p770
sg5
S'30 minute commute from reno to the tesla factory in a tesl'
p771
sa(dp772
g2
I139732
sg3
S'Mon Aug 17 04:59:37 +0000 2015'
p773
sg5
S"A verified check is the new tesla that is a status symbol that used to mean something but now just means you're kind of a dick."
p774
sa(dp775
g2
I186358
sg3
S'Tue Aug 18 03:04:04 +0000 2015'
p776
sg5
S'Styx and tesla and def larperd geat concert http:\\/\\/t.co\\/2WWfADLT7Z'
p777
sa(dp778
g2
I149938
sg3
S'Tue Aug 18 15:29:00 +0000 2015'
p779
sg5
S'@UncleWithCars as far as a tesla can go on one charge.'
p780
sa(dp781
g2
I5274
sg3
S'Tue Aug 18 20:10:57 +0000 2015'
p782
sg5
S'current dream car: matte black tesla wowie wow woah damn \\ud83d\\udd25 http:\\/\\/t.co\\/9m4STYmLSt'
p783
sa(dp784
g2
I64614
sg3
S'Tue Aug 18 22:39:53 +0000 2015'
p785
sg5
S'Astounding.. My London tesla awaits  https:\\/\\/t.co\\/CIN0ces0T6'
p786
sa(dp787
g2
I34572
sg3
S'Tue Aug 18 23:54:14 +0000 2015'
p788
sg5
S'Are we really stationed next to a tesla factory. http:\\/\\/t.co\\/6eXatBk8V6'
p789
sa(dp790
g2
I153940
sg3
S'Wed Aug 19 05:08:48 +0000 2015'
p791
sg5
S'Does plug-in hybrid + home solar + tesla powerwall (for charging car at night) make financial and environmental sense now? Or still a toy?'
p792
sa(dp793
g2
I4026
sg3
S'Wed Aug 19 18:41:01 +0000 2015'
p794
sg5
S"I can't wait to get a tesla so I can browse e621 while going down the road"
p795
sa(dp796
g2
I114294
sg3
S'Wed Aug 19 22:02:13 +0000 2015'
p797
sg5
S'Just saw a tesla on 52'
p798
sa(dp799
g2
I28854
sg3
S'Wed Aug 19 22:39:12 +0000 2015'
p800
sg5
S'@KatieDauf ask them for that tesla hahaha.. Flying you out to resorts in Hawaii and shit \\ud83d\\ude02\\ud83d\\ude02'
p801
sa(dp802
g2
I9452
sg3
S'Thu Aug 20 01:20:03 +0000 2015'
p803
sg5
S'The price targets for tesla seem ridiculou'
p804
sa(dp805
g2
I78934
sg3
S'Thu Aug 20 05:10:38 +0000 2015'
p806
sg5
S"@avalon_amaral there's a big fire near tesla I think"
p807
sa(dp808
g2
I66928
sg3
S'Thu Aug 20 17:23:11 +0000 2015'
p809
sg5
S'Tattoo idea: nikola tesla mean mugging w\\/ a tesla coil in the background w\\/ lightning coming off it'
p810
sa(dp811
g2
I45892
sg3
S'Thu Aug 20 23:54:18 +0000 2015'
p812
sg5
S"when u can see ur reflection in ashley's tesla http:\\/\\/t.co\\/44YnC27TEZ"
p813
sa(dp814
g2
I40176
sg3
S'Fri Aug 21 00:15:51 +0000 2015'
p815
sg5
S'Stupid tesla fire had that raid shit down for the next couple days and ruining my commute #climatechange #wearescrewed #water'
p816
sa(dp817
g2
I66750
sg3
S'Fri Aug 21 17:00:21 +0000 2015'
p818
sg5
S"rm's bf just said nikola tesla 6 times in a row hoping someone would ask who he is but i am 1. not asking and 2. not caring"
p819
sa(dp820
g2
I56898
sg3
S'Fri Aug 21 17:56:31 +0000 2015'
p821
sg5
S'#grilledcheese + #tesla = pure power.   Come and get lunch tesla team. (at @TeslaMotors HQ in Palo Alt'
p822
sa(dp823
g2
I42582
sg3
S'Sat Aug 22 00:00:42 +0000 2015'
p824
sg5
S'Def Leppard \\/ Styx \\/ tesla concert with my dad tonight \\ud83d\\ude0a'
p825
sa(dp826
g2
I79430
sg3
S'Sat Aug 22 17:05:23 +0000 2015'
p827
sg5
S'Just saw a tesla model s #HolyGod \\ud83d\\ude0d\\ud83d\\ude0d'
p828
sa(dp829
g2
I157114
sg3
S'Sat Aug 22 19:59:10 +0000 2015'
p830
sg5
S'On our way to somewhere tonight. Maybe even as far as Reno. (@ tesla supercharger in UT) https:\\/\\/t.co\\/1DPiQJrDyg'
p831
sa(dp832
g2
I4060
sg3
S'Sat Aug 22 20:49:45 +0000 2015'
p833
sg5
S'Finna buy a tesla fuck YALL'
p834
sa(dp835
g2
I216132
sg3
S'Sat Aug 22 23:00:53 +0000 2015'
p836
sg5
S"my mom yesterday: remember we're seeing def leppard and tesla tomorrow!\\nmy mom now: jk we never actually bought tickets"
p837
sa(dp838
g2
I111630
sg3
S'Sun Aug 23 00:05:32 +0000 2015'
p839
sg5
S'@BjornNyland love your vids. What do you think about 90kw upgrade option for tesla s?'
p840
sa(dp841
g2
I163398
sg3
S'Sun Aug 23 16:28:02 +0000 2015'
p842
sg5
S'@Shanaythefishy tesla ?'
p843
sa(dp844
g2
I270822
sg3
S'Mon Aug 24 00:04:25 +0000 2015'
p845
sg5
S'i want a tesla to bad. hoes so clean'
p846
sa(dp847
g2
I340880
sg3
S'Mon Aug 24 00:33:08 +0000 2015'
p848
sg5
S"Why Oakland I love Oakland: the randomly driving past two of the biggest tesla coils I've ever seen! http:\\/\\/t.co\\/wT0kmzZJPf"
p849
sa(dp850
g2
I173456
sg3
S'Mon Aug 24 02:45:11 +0000 2015'
p851
sg5
S'@kalemangowater @raniasiddique @juliarlubey tesla yes'
p852
sa(dp853
g2
I41382
sg3
S'Mon Aug 24 04:38:11 +0000 2015'
p854
sg5
S"Guess who's getting the chance to drive a tesla tomorrow \\ud83d\\ude0e"
p855
sa(dp856
g2
I27206
sg3
S'Mon Aug 24 05:43:09 +0000 2015'
p857
sg5
S'My sister asked me if I wanted to work at tesla ..'
p858
sa(dp859
g2
I21558
sg3
S'Mon Aug 24 13:10:59 +0000 2015'
p860
sg5
S'and that car (the tesla model 3) will do to cars what iphone did to phones.\\n\\nmark my words people.'
p861
sa(dp862
g2
I16442
sg3
S'Tue Aug 25 01:07:28 +0000 2015'
p863
sg5
S"Even I want to drive a tesla and I don't drive! http:\\/\\/t.co\\/6vBOpWNOum @TeslaMotors http:\\/\\/t.co\\/3iEXEuXI6b\\u201d"
p864
sa(dp865
g2
I20762
sg3
S'Tue Aug 25 01:09:02 +0000 2015'
p866
sg5
S'\\"My panties would be on the floor if a guy had a tesla\\" \\"a tesla coil?\\"'
p867
sa(dp868
g2
I4054
sg3
S'Tue Aug 25 03:02:00 +0000 2015'
p869
sg5
S'If they could steal\\/destroy nikolai tesla invention that would give us all free energy makes me think what else was held back from us'
p870
sa(dp871
g2
I8118
sg3
S'Tue Aug 25 16:25:40 +0000 2015'
p872
sg5
S'Driving through tesla rode by Carnegie this morning made me so sad to see everything burned and all the houses affected'
p873
sa(dp874
g2
I313736
sg3
S'Wed Aug 26 01:40:16 +0000 2015'
p875
sg5
S'I would love to go to the def leopard with styx and tesla concert next month tbh'
p876
sa(dp877
g2
I6302
sg3
S'Wed Aug 26 01:45:17 +0000 2015'
p878
sg5
S'I would love to go to the def leppard with Styx and tesla concert next month tbh'
p879
sa(dp880
g2
I34430
sg3
S'Wed Aug 26 05:38:21 +0000 2015'
p881
sg5
S'I told tesla his baby (stuffed animal) had to sleep in his toy box not our bed and he threw the biggest fit and whined himself to sleep. \\ud83d\\ude13'
p882
sa(dp883
g2
I300130
sg3
S'Wed Aug 26 17:12:57 +0000 2015'
p884
sg5
S"@miguelceron133 I'm buying a tesla or a bmw nex"
p885
sa(dp886
g2
I34490
sg3
S'Wed Aug 26 17:45:51 +0000 2015'
p887
sg5
S'Just saw a tesla with a sick black matte paint job \\ud83d\\ude0d\\ud83d\\udc4c\\ud83c\\udffb'
p888
sa(dp889
g2
I55688
sg3
S'Wed Aug 26 20:59:32 +0000 2015'
p890
sg5
S'You guys what actually is a tesla though'
p891
sa(dp892
g2
I56186
sg3
S'Wed Aug 26 20:59:32 +0000 2015'
p893
sg5
S'You guys what actually is a tesla though'
p894
sa(dp895
g2
I17446
sg3
S'Wed Aug 26 21:26:17 +0000 2015'
p896
sg5
S'Just seen a tesla on 675 \\ud83d\\ude29'
p897
sa(dp898
g2
I6528
sg3
S'Wed Aug 26 22:21:55 +0000 2015'
p899
sg5
S"@brandipugh__ quit dragging Morgan in your battles just because you and tesla aren't friends anymore. Either fight or Stfu about it"
p900
sa(dp901
g2
I3320
sg3
S'Thu Aug 27 02:56:58 +0000 2015'
p902
sg5
S"@FORTYYinch lets pop a tesla if you're down"
p903
sa(dp904
g2
I37290
sg3
S'Thu Aug 27 18:50:22 +0000 2015'
p905
sg5
S'@ConNeal66 tesla hippo  https:\\/\\/t.co\\/ArbdJaO9Co'
p906
sa(dp907
g2
I179682
sg3
S'Fri Aug 28 02:26:01 +0000 2015'
p908
sg5
S"@abdophoto tesla has done a really great job so far but if they're not carefu"
p909
sa(dp910
g2
I67898
sg3
S'Sat Aug 29 13:49:59 +0000 2015'
p911
sg5
S'@ConsumerReports @elonmusk @AAAnews  guide gave the tesla S P85D a 94.87 green driveway rating. @stevewoz https:\\/\\/t.co\\/ajfNAcWPMp'
p912
sa(dp913
g2
I92714
sg3
S'Sat Aug 29 22:01:17 +0000 2015'
p914
sg5
S'I am going to own a tesla one day.'
p915
sa(dp916
g2
I372984
sg3
S'Sun Aug 30 01:51:27 +0000 2015'
p917
sg5
S"@VictorJServin @elonmusk I would love one if they were smaller form factor.  I know it will happen. I'm a known tesla fan!!!"
p918
sa(dp919
g2
I385392
sg3
S'Sun Aug 30 01:56:43 +0000 2015'
p920
sg5
S'@GUNSandcrayons tesla model s p95d bro'
p921
sa(dp922
g2
I120512
sg3
S'Sun Aug 30 05:56:45 +0000 2015'
p923
sg5
S'@AwkwardlyVale I got tesla lmao :-)'
p924
sa(dp925
g2
I68520
sg3
S'Mon Aug 31 01:52:47 +0000 2015'
p926
sg5
S"When your mom tells you she's thinking about getting a tesla \\ud83d\\ude0d\\ud83d\\ude0d\\ud83d\\ude0d"
p927
sa(dp928
g2
I249190
sg3
S'Mon Aug 31 21:27:49 +0000 2015'
p929
sg5
S'@QuitaC_KVUE @ShannonM_KVUE my books that showed and talked about tesla coils was stolen while in lock up last time.'
p930
sa(dp931
g2
I67090
sg3
S'Wed Sep 02 05:36:50 +0000 2015'
p932
sg5
S'My son enjoying the music...STYX Def LEPPARD tesla http:\\/\\/t.co\\/DcKEsDLCww'
p933
sa(dp934
g2
I62084
sg3
S'Wed Sep 02 06:20:58 +0000 2015'
p935
sg5
S'$80 to get in a tesla with a driver to go to vegas'
p936
sa(dp937
g2
I140660
sg3
S'Wed Sep 02 21:02:11 +0000 2015'
p938
sg5
S"@elonmusk yeah I'm not poor but 35K is still up there so even a fan discount would be appreciated. I think what tesla is doing is great."
p939
sa(dp940
g2
I35908
sg3
S'Thu Sep 03 03:38:00 +0000 2015'
p941
sg5
S'Yay! Got the job at tesla for the STB testing analysis position! $17 an hour'
p942
sa(dp943
g2
I112876
sg3
S'Thu Sep 03 04:52:04 +0000 2015'
p944
sg5
S'\\"Hits blunt\\" if your enemy has a hidden tesla and everything else is destroye'
p945
sa(dp946
g2
I623702
sg3
S'Thu Sep 03 18:19:02 +0000 2015'
p947
sg5
S'Inside of the tesla look like a damn computer.'
p948
sa(dp949
g2
I63146
sg3
S'Fri Sep 04 00:00:00 +0000 2015'
p950
sg5
S'When i write \\"i want to make bank and drive a tesla or G Wagon\\" on my goals sheet and my teacher counts it wrong&lt;&lt;'
p951
sa(dp952
g2
I9172
sg3
S'Fri Sep 04 20:33:07 +0000 2015'
p953
sg5
S"Thank you @ETWOWUS for the scooter! Feeling like I'm driving a mini tesla haha  https:\\/\\/t.co\\/uaD6f2hdAj 639898629264801792"
p954
sa(dp955
g2
I138914
sg3
S'Sat Sep 05 03:00:35 +0000 2015'
p956
sg5
S'tesla # scroll for days  search tesla on rwitter and see what i mean i wasent just dreaming'
p957
sa(dp958
g2
I30550
sg3
S'Sat Sep 05 05:00:49 +0000 2015'
p959
sg5
S'When someone you care about tesla you \\n\\"Write.... keep on writing..... that\'s the ticket.... always will be.\\" \\n\\nIt just inspires you more.'
p960
sa(dp961
g2
I61674
sg3
S'Mon Sep 07 01:44:41 +0000 2015'
p962
sg5
S'Tryna have a tesla or a g wagon'
p963
sa(dp964
g2
I3148
sg3
S'Mon Sep 07 17:36:52 +0000 2015'
p965
sg5
S"@spleck that's a tesla and a nice full size truck combined!"
p966
sa(dp967
g2
I4310
sg3
S'Mon Sep 07 22:26:46 +0000 2015'
p968
sg5
S'Went to sleep in a tesla woke up in a 9\\/11'
p969
sa(dp970
g2
I88998
sg3
S'Tue Sep 08 12:17:27 +0000 2015'
p971
sg5
S"@zoemcdaniel ...there's a tesla in your student parking lot...?"
p972
sa(dp973
g2
I233974
sg3
S'Tue Sep 08 14:15:36 +0000 2015'
p974
sg5
S'FEYE adds cfo and appoints tesla head to their board'
p975
sa(dp976
g2
I191688
sg3
S'Tue Sep 08 16:21:27 +0000 2015'
p977
sg5
S'First day at tesla today hopefully goes good'
p978
sa(dp979
g2
I275312
sg3
S'Tue Sep 08 21:56:25 +0000 2015'
p980
sg5
S'when you backtrack while jaywalking to check out a guys tesla but then he creepily smiles at you #awkward'
p981
sa(dp982
g2
I16980
sg3
S'Tue Sep 08 22:36:57 +0000 2015'
p983
sg5
S'@TeslaMotors day 10 no tesla model waiting for me only @Oprah can help me get my tesla'
p984
sa(dp985
g2
I62856
sg3
S'Wed Sep 09 00:04:18 +0000 2015'
p986
sg5
S'Not even an hour of sleep and tesla woke me up. Omg I hate my life'
p987
sa(dp988
g2
I127044
sg3
S'Wed Sep 09 08:02:34 +0000 2015'
p989
sg5
S'First day at tesla was cool other then it being like a sanctuary sauna in that mutha !!!!!'
p990
sa(dp991
g2
I13052
sg3
S'Wed Sep 09 23:48:24 +0000 2015'
p992
sg5
S"@RelayRides You think if I bought a tesla I'd let random niggas rent that shit!?"
p993
sa(dp994
g2
I2658
sg3
S'Thu Sep 10 04:20:10 +0000 2015'
p995
sg5
S'@skooks I drive a tesla can you tell me about your tesla plans for Mars-la?'
p996
sa(dp997
g2
I3030
sg3
S'Thu Sep 10 16:57:21 +0000 2015'
p998
sg5
S'Driving a tesla \\u2764\\ufe0f! TMT\\ud83d\\udcb0'
p999
sa(dp1000
g2
I94876
sg3
S'Thu Sep 10 23:41:47 +0000 2015'
p1001
sg5
S"That freaking tesla is lucky i didn't ram into it asshole"
p1002
sa(dp1003
g2
I25640
sg3
S'Fri Sep 11 09:54:10 +0000 2015'
p1004
sg5
S"Nikolai tesla invented alternating currents but all the power company's are named after Tomas Edison"
p1005
sa(dp1006
g2
I9616
sg3
S'Fri Sep 11 14:04:40 +0000 2015'
p1007
sg5
S"I'm coming to Yuma today. Hopefully tesla likes car rides \\ud83d\\udc40"
p1008
sa(dp1009
g2
I55006
sg3
S'Sat Sep 12 02:50:51 +0000 2015'
p1010
sg5
S'Ol dude just creeped up on me in the tesla \\ud83d\\udd07\\ud83d\\udd07\\ud83d\\udd07\\ud83d\\udd07\\ud83d\\udd07'
p1011
sa(dp1012
g2
I85100
sg3
S'Sat Sep 12 16:29:30 +0000 2015'
p1013
sg5
S'Folks checking out the tesla @mallofamerica #DriveElectricMN @ Mall of America https:\\/\\/t.co\\/UA2P7fdQS7'
p1014
sa(dp1015
g2
I31352
sg3
S'Sat Sep 12 22:49:34 +0000 2015'
p1016
sg5
S'@elonmusk lease tesla deals for #lyft drivers in #austin? #brandembassador'
p1017
sa(dp1018
g2
I65106
sg3
S'Sun Sep 13 02:16:13 +0000 2015'
p1019
sg5
S'\\ud83d\\udc0e saturday polo match with tesla \\/\\/ and oh hey caitlynjenner \\ud83d\\udc81\\ud83c\\udffb\\ud83c\\udf1f #safetyharborkids @ Will Rogers Polo\\u2026 https:\\/\\/t.co\\/pNgvTvpkbe'
p1020
sa(dp1021
g2
I99786
sg3
S'Sun Sep 13 06:27:02 +0000 2015'
p1022
sg5
S'@tesladrianne @rohmontgomery well tesla in this day in age one can be busy n have multiple text conversations going at onc'
p1023
sa(dp1024
g2
I400276
sg3
S'Sun Sep 13 17:42:21 +0000 2015'
p1025
sg5
S'@rudog97 Tesla: They wont protect you from THIS!!!! -unleashes final tesla coil from his dong-'
p1026
sa(dp1027
g2
I437924
sg3
S'Sun Sep 13 17:56:24 +0000 2015'
p1028
sg5
S'what id do for a tesla man....'
p1029
sa(dp1030
g2
I29932
sg3
S'Sun Sep 13 19:19:28 +0000 2015'
p1031
sg5
S'Getting my 1st ride in 55hardtop4me  tesla what an amazing car @ Laguna\\u2026 https:\\/\\/t.co\\/PikaTi0QQu'
p1032
sa(dp1033
g2
I80
sg3
S'Mon Sep 14 01:31:25 +0000 2015'
p1034
sg5
S'@itsCrab tesla almost made that a reality'
p1035
sa(dp1036
g2
I139880
sg3
S'Mon Sep 14 05:08:41 +0000 2015'
p1037
sg5
S'I guess tonight is ignore tesla night'
p1038
sa(dp1039
g2
I28680
sg3
S'Tue Sep 15 02:24:01 +0000 2015'
p1040
sg5
S"One of my neighbors has a matte black tesla with blacked out windows I'm crying \\ud83d\\ude2d\\ud83d\\ude0d"
p1041
sa(dp1042
g2
I17166
sg3
S'Tue Sep 15 10:45:19 +0000 2015'
p1043
sg5
S'My future tesla is going to purr'
p1044
sa(dp1045
g2
I47862
sg3
S'Tue Sep 15 15:27:00 +0000 2015'
p1046
sg5
S'Happy birthday tesla \\ud83d\\ude07 @Teslaaaa http:\\/\\/t.co\\/9120BCUT8S'
p1047
sa(dp1048
g2
I13824
sg3
S'Tue Sep 15 19:14:31 +0000 2015'
p1049
sg5
S"These juniors over here driving a tesla while I'm probably going to have to share my dad's Prius with my brother"
p1050
sa(dp1051
g2
I183268
sg3
S'Tue Sep 15 23:54:08 +0000 2015'
p1052
sg5
S'@bradwestfall well the graphic is specifically tesla sales. Tesla can have stores they are BANNED from selling. I should have been more spec'
p1053
sa(dp1054
g2
I10208
sg3
S'Wed Sep 16 02:34:47 +0000 2015'
p1055
sg5
S"I'm obsessed that the key to a tesla is a mini tesla http:\\/\\/t.co\\/6BKpahSnVG"
p1056
sa(dp1057
g2
I22556
sg3
S'Wed Sep 16 12:50:39 +0000 2015'
p1058
sg5
S"Now that's an electric car I could drive every day... Porsche announces new electric to take on tesla motor"
p1059
sa(dp1060
g2
I52682
sg3
S'Thu Sep 17 02:04:49 +0000 2015'
p1061
sg5
S'my nanny dad who happens to be an extremely wealthy business man just pulled into the garage in his tesla blaring \\"mean by taylor swift\\" \\ud83d\\ude02'
p1062
sa(dp1063
g2
I60232
sg3
S'Thu Sep 17 02:07:21 +0000 2015'
p1064
sg5
S"Disappointed @JWLALIVE. Just got car from valet &amp; 2nd in line. Valet backs out to let tesla in my car's place. #Privilege #CarDiscrimination"
p1065
sa(dp1066
g2
I131282
sg3
S'Thu Sep 17 05:09:34 +0000 2015'
p1067
sg5
S'My uber driver has a tesla #yes'
p1068
sa(dp1069
g2
I25156
sg3
S'Thu Sep 17 20:21:57 +0000 2015'
p1070
sg5
S"Look it's the rear end of the new tesla x http:\\/\\/t.co\\/KfAm9rDmd0"
p1071
sa(dp1072
g2
I19804
sg3
S'Thu Sep 17 21:18:07 +0000 2015'
p1073
sg5
S"@HeavyMids same \\ud83d\\ude2d makes me think of a friend in high school physics club who built a 4' tesla coil for fun. Probably wouldn't fly these days"
p1074
sa(dp1075
g2
I4710
sg3
S'Fri Sep 18 04:10:37 +0000 2015'
p1076
sg5
S'Just got catcalled by a dude sitting in a tesla. The tesla looked like he would be sleeping in it tonight -_- #Dreamforce in #dogpatch'
p1077
sa(dp1078
g2
I5968
sg3
S'Fri Sep 18 17:41:48 +0000 2015'
p1079
sg5
S'I want a tesla so bad \\ud83d\\ude29'
p1080
sa(dp1081
g2
I22258
sg3
S'Fri Sep 18 21:49:16 +0000 2015'
p1082
sg5
S'did i just see a tesla is farmington ??? \\ud83d\\ude0d'
p1083
sa(dp1084
g2
I181266
sg3
S'Sat Sep 19 00:44:53 +0000 2015'
p1085
sg5
S"My brother just got a job at tesla and I'm so happy for him."
p1086
sa(dp1087
g2
I194000
sg3
S'Sat Sep 19 20:08:18 +0000 2015'
p1088
sg5
S'@OhPoorPup how much do you think a couple tesla coils and a faraday suit cost these days? https:\\/\\/t.co\\/D0CWY8xku5'
p1089
sa(dp1090
g2
I44328
sg3
S'Sun Sep 20 02:52:06 +0000 2015'
p1091
sg5
S'@deanshaw yes only works in certain places. Also nice ride -- get a tesla next!'
p1092
sa(dp1093
g2
I19304
sg3
S'Sun Sep 20 16:09:59 +0000 2015'
p1094
sg5
S'my moms like \\"I want a tesla so I can race your dad in his Benz\\" \\ud83d\\udc80 ok mom that\'s illegal and you\'d lose \\ud83d\\ude02'
p1095
sa(dp1096
g2
I45306
sg3
S'Sun Sep 20 22:23:18 +0000 2015'
p1097
sg5
S'@MurraySwanby so you must be driving a tesla by now'
p1098
sa(dp1099
g2
I25776
sg3
S'Mon Sep 21 05:55:24 +0000 2015'
p1100
sg5
S'I want tesla \\ud83d\\ude2d\\ud83d\\ude4f\\ud83c\\udffb\\ud83d\\ude4f\\ud83c\\udffb\\ud83d\\ude4f\\ud83c\\udffb\\ud83d\\ude4f\\ud83c\\udffb'
p1101
sa(dp1102
g2
I70160
sg3
S'Mon Sep 21 13:48:42 +0000 2015'
p1103
sg5
S'My love for tesla reignites everytime i read about their business and products lol'
p1104
sa(dp1105
g2
I69694
sg3
S'Mon Sep 21 17:26:59 +0000 2015'
p1106
sg5
S"@Fluxpavilion wanna tell me why ur tesla tour doesn't have a Dallas concert!!!!\\ud83d\\ude1f"
p1107
sa(dp1108
g2
I49550
sg3
S'Mon Sep 21 23:20:42 +0000 2015'
p1109
sg5
S"can't wait to have a tesla one day\\ud83d\\ude0d\\ud83d\\ude0d"
p1110
sa(dp1111
g2
I62902
sg3
S'Tue Sep 22 12:20:45 +0000 2015'
p1112
sg5
S'This tesla battery can provide off the grid power to your entire home #tesla \\n\\nhttp:\\/\\/t.co\\/AoXdh5FL0h'
p1113
sa(dp1114
g2
I5024
sg3
S'Tue Sep 22 12:52:14 +0000 2015'
p1115
sg5
S'My investments teacher just sold his investment for tesla for $26 million and is retiring today holy shit'
p1116
sa(dp1117
g2
I265848
sg3
S'Tue Sep 22 15:47:02 +0000 2015'
p1118
sg5
S"Hit me with your tesla car you won't have tesla money."
p1119
sa(dp1120
g2
I133126
sg3
S'Tue Sep 22 21:27:30 +0000 2015'
p1121
sg5
S'When I got back into my car there was a tesla parked next to it and I almost peed myself'
p1122
sa(dp1123
g2
I2492
sg3
S'Wed Sep 23 03:33:30 +0000 2015'
p1124
sg5
S'@djtegan buy a tesla powerpack?'
p1125
sa(dp1126
g2
I68852
sg3
S'Wed Sep 23 17:00:26 +0000 2015'
p1127
sg5
S'interesting data background for tesla and apple https:\\/\\/t.co\\/K8AY7f3Fgk'
p1128
sa(dp1129
g2
I19042
sg3
S'Wed Sep 23 22:32:26 +0000 2015'
p1130
sg5
S'@RicardoFraga :) compra um tesla e descubra qual \\u00e9 mais barato na pratica rs'
p1131
sa(dp1132
g2
I209318
sg3
S'Thu Sep 24 15:21:34 +0000 2015'
p1133
sg5
S'Just saw the hottest guy driving a tesla \\ud83d\\ude0d\\ud83d\\ude0d\\ud83d\\ude0d\\ud83d\\ude29'
p1134
sa(dp1135
g2
I173324
sg3
S'Thu Sep 24 18:38:09 +0000 2015'
p1136
sg5
S'@metadaddy @alanlepo agree. But the data and software on the VW is only one degree away from a tesla where patches are downloaded (1\\/2)'
p1137
sa(dp1138
g2
I73980
sg3
S'Thu Sep 24 23:29:46 +0000 2015'
p1139
sg5
S'lol just walked up to a tesla thinking it was my car\\ud83d\\ude05\\ud83d\\ude05\\ud83d\\ude1e'
p1140
sa(dp1141
g2
I246716
sg3
S'Fri Sep 25 06:38:05 +0000 2015'
p1142
sg5
S'Kicked off #concertpalooza last nite rocking like the 80s with these guys defleppard styx tesla an\\u2026 https:\\/\\/t.co\\/tQjxPNreHY'
p1143
sa(dp1144
g2
I384180
sg3
S'Fri Sep 25 18:04:53 +0000 2015'
p1145
sg5
S'@elonmusk trouble at the company that builds the tesla $TSLA ev motor http:\\/\\/t.co\\/aqLwBmSc3X @YahooFinance #Tesla http:\\/\\/t.co\\/DnT83G7RxR'
p1146
sa(dp1147
g2
I498648
sg3
S'Fri Sep 25 19:08:11 +0000 2015'
p1148
sg5
S'find me beyond after a tall can and tesla like http:\\/\\/t.co\\/EMdFSGI1tO'
p1149
sa(dp1150
g2
I499218
sg3
S'Fri Sep 25 19:08:30 +0000 2015'
p1151
sg5
S'me at beyond tomorrow after a tall can and a tesla http:\\/\\/t.co\\/biV92ifFiT'
p1152
sa(dp1153
g2
I35898
sg3
S'Fri Sep 25 23:20:32 +0000 2015'
p1154
sg5
S'When the tesla hits you http:\\/\\/t.co\\/uWnPbW0a3z'
p1155
sa(dp1156
g2
I302808
sg3
S'Sat Sep 26 21:30:41 +0000 2015'
p1157
sg5
S'Went into tesla yesterday &amp; built me a ca'
p1158
sa(dp1159
g2
I7826
sg3
S'Sun Sep 27 17:55:52 +0000 2015'
p1160
sg5
S'When he really wants you to know he drives a tesla  https:\\/\\/t.co\\/CEjlZ1PWdG'
p1161
sa(dp1162
g2
I121890
sg3
S'Sun Sep 27 18:43:14 +0000 2015'
p1163
sg5
S'Tryna have my tesla'
p1164
sa(dp1165
g2
I132234
sg3
S'Sun Sep 27 23:48:50 +0000 2015'
p1166
sg5
S'@briansolis @burritojustice burning man is way lower down than being an angel investor or a tesla :p'
p1167
sa.
